target datalayout = "e-m:e-p270:32:32-p271:32:32-p272:64:64-i64:64-i128:128-f80:128-n8:16:32:64-S128"
target triple = "x86_64-unknown-linux-gnu"

%struct.iovec = type { ptr, i64 }
%struct.IOVDiscardUndo = type { ptr, %struct.iovec }

; Function Attrs: nounwind sspstrong uwtable
define dso_local i64 @iov_discard_back_undoable(ptr noundef %iov, ptr noundef %iov_cnt, i64 noundef %bytes, ptr noundef %undo) #0 {
entry:
  %retval = alloca i64, align 8
  %iov.addr = alloca ptr, align 8
  %iov_cnt.addr = alloca ptr, align 8
  %bytes.addr = alloca i64, align 8
  %undo.addr = alloca ptr, align 8
  %total = alloca i64, align 8
  %cur = alloca ptr, align 8
  store ptr %iov, ptr %iov.addr, align 8
  store ptr %iov_cnt, ptr %iov_cnt.addr, align 8
  store i64 %bytes, ptr %bytes.addr, align 8
  store ptr %undo, ptr %undo.addr, align 8
  store i64 0, ptr %total, align 8
  %0 = load ptr, ptr %undo.addr, align 8
  %tobool = icmp ne ptr %0, null
  br i1 %tobool, label %if.then, label %if.end

if.then:                                          ; preds = %entry
  %1 = load ptr, ptr %undo.addr, align 8
  %modified_iov = getelementptr inbounds %struct.IOVDiscardUndo, ptr %1, i32 0, i32 0
  store ptr null, ptr %modified_iov, align 8
  br label %if.end

if.end:                                           ; preds = %if.then, %entry
  %2 = load ptr, ptr %iov_cnt.addr, align 8
  %3 = load i32, ptr %2, align 4
  %cmp = icmp eq i32 %3, 0
  br i1 %cmp, label %if.then1, label %if.end2

if.then1:                                         ; preds = %if.end
  store i64 0, ptr %retval, align 8
  br label %return

if.end2:                                          ; preds = %if.end
  %4 = load ptr, ptr %iov.addr, align 8
  %5 = load ptr, ptr %iov_cnt.addr, align 8
  %6 = load i32, ptr %5, align 4
  %sub = sub i32 %6, 1
  %idx.ext = zext i32 %sub to i64
  %add.ptr = getelementptr %struct.iovec, ptr %4, i64 %idx.ext
  store ptr %add.ptr, ptr %cur, align 8
  br label %while.cond

while.cond:                                       ; preds = %if.end12, %if.end2
  %7 = load ptr, ptr %iov_cnt.addr, align 8
  %8 = load i32, ptr %7, align 4
  %cmp3 = icmp ugt i32 %8, 0
  br i1 %cmp3, label %while.body, label %while.end

while.body:                                       ; preds = %while.cond
  %9 = load ptr, ptr %cur, align 8
  %iov_len = getelementptr inbounds %struct.iovec, ptr %9, i32 0, i32 1
  %10 = load i64, ptr %iov_len, align 8
  %11 = load i64, ptr %bytes.addr, align 8
  %cmp4 = icmp ugt i64 %10, %11
  br i1 %cmp4, label %if.then5, label %if.end12

if.then5:                                         ; preds = %while.body
  %12 = load ptr, ptr %undo.addr, align 8
  %tobool6 = icmp ne ptr %12, null
  br i1 %tobool6, label %if.then7, label %if.end9

if.then7:                                         ; preds = %if.then5
  %13 = load ptr, ptr %cur, align 8
  %14 = load ptr, ptr %undo.addr, align 8
  %modified_iov8 = getelementptr inbounds %struct.IOVDiscardUndo, ptr %14, i32 0, i32 0
  store ptr %13, ptr %modified_iov8, align 8
  %15 = load ptr, ptr %undo.addr, align 8
  %orig = getelementptr inbounds %struct.IOVDiscardUndo, ptr %15, i32 0, i32 1
  %16 = load ptr, ptr %cur, align 8
  call void @llvm.memcpy.p0.p0.i64(ptr align 8 %orig, ptr align 8 %16, i64 16, i1 false)
  br label %if.end9

if.end9:                                          ; preds = %if.then7, %if.then5
  %17 = load i64, ptr %bytes.addr, align 8
  %18 = load ptr, ptr %cur, align 8
  %iov_len10 = getelementptr inbounds %struct.iovec, ptr %18, i32 0, i32 1
  %19 = load i64, ptr %iov_len10, align 8
  %sub11 = sub i64 %19, %17
  store i64 %sub11, ptr %iov_len10, align 8
  %20 = load i64, ptr %bytes.addr, align 8
  %21 = load i64, ptr %total, align 8
  %add = add i64 %21, %20
  store i64 %add, ptr %total, align 8
  br label %while.end

if.end12:                                         ; preds = %while.body
  %22 = load ptr, ptr %cur, align 8
  %iov_len13 = getelementptr inbounds %struct.iovec, ptr %22, i32 0, i32 1
  %23 = load i64, ptr %iov_len13, align 8
  %24 = load i64, ptr %bytes.addr, align 8
  %sub14 = sub i64 %24, %23
  store i64 %sub14, ptr %bytes.addr, align 8
  %25 = load ptr, ptr %cur, align 8
  %iov_len15 = getelementptr inbounds %struct.iovec, ptr %25, i32 0, i32 1
  %26 = load i64, ptr %iov_len15, align 8
  %27 = load i64, ptr %total, align 8
  %add16 = add i64 %27, %26
  store i64 %add16, ptr %total, align 8
  %28 = load ptr, ptr %cur, align 8
  %incdec.ptr = getelementptr %struct.iovec, ptr %28, i32 -1
  store ptr %incdec.ptr, ptr %cur, align 8
  %29 = load ptr, ptr %iov_cnt.addr, align 8
  %30 = load i32, ptr %29, align 4
  %sub17 = sub i32 %30, 1
  store i32 %sub17, ptr %29, align 4
  br label %while.cond, !llvm.loop !26

while.end:                                        ; preds = %if.end9, %while.cond
  %31 = load i64, ptr %total, align 8
  store i64 %31, ptr %retval, align 8
  br label %return

return:                                           ; preds = %while.end, %if.then1
  %32 = load i64, ptr %retval, align 8
  ret i64 %32
}