; Function Attrs: nofree norecurse nosync nounwind sspstrong memory(argmem: readwrite) uwtable
define dso_local i64 @iov_discard_back_undoable(ptr noundef %iov, ptr noundef captures(none) %iov_cnt, i64 noundef %bytes, ptr noundef writeonly %undo) local_unnamed_addr #9 {
entry:
  %tobool.not = icmp eq ptr %undo, null
  br i1 %tobool.not, label %if.end, label %if.then

if.then:                                          ; preds = %entry
  store ptr null, ptr %undo, align 8
  br label %if.end

if.end:                                           ; preds = %if.then, %entry
  %0 = load i32, ptr %iov_cnt, align 4
  %cmp = icmp eq i32 %0, 0
  br i1 %cmp, label %return, label %while.body.preheader

while.body.preheader:                             ; preds = %if.end
  %sub = add i32 %0, -1
  %idx.ext = zext i32 %sub to i64
  %add.ptr = getelementptr %struct.iovec, ptr %iov, i64 %idx.ext
  br label %while.body

while.body:                                       ; preds = %while.body.preheader, %if.end12
  %cur.027 = phi ptr [ %incdec.ptr, %if.end12 ], [ %add.ptr, %while.body.preheader ]
  %total.026 = phi i64 [ %add16, %if.end12 ], [ 0, %while.body.preheader ]
  %bytes.addr.025 = phi i64 [ %sub14, %if.end12 ], [ %bytes, %while.body.preheader ]
  %1 = phi i32 [ %sub17, %if.end12 ], [ %0, %while.body.preheader ]
  %iov_len = getelementptr inbounds nuw i8, ptr %cur.027, i64 8
  %2 = load i64, ptr %iov_len, align 8
  %cmp4 = icmp ugt i64 %2, %bytes.addr.025
  br i1 %cmp4, label %if.then5, label %if.end12

if.then5:                                         ; preds = %while.body
  %iov_len.le = getelementptr inbounds nuw i8, ptr %cur.027, i64 8
  br i1 %tobool.not, label %if.end9, label %if.then7

if.then7:                                         ; preds = %if.then5
  store ptr %cur.027, ptr %undo, align 8
  %orig = getelementptr inbounds nuw i8, ptr %undo, i64 8
  tail call void @llvm.memcpy.p0.p0.i64(ptr noundef nonnull align 8 dereferenceable(16) %orig, ptr noundef nonnull align 8 dereferenceable(16) %cur.027, i64 16, i1 false)
  %.pre = load i64, ptr %iov_len.le, align 8
  br label %if.end9

if.end9:                                          ; preds = %if.then7, %if.then5
  %3 = phi i64 [ %.pre, %if.then7 ], [ %2, %if.then5 ]
  %sub11 = sub i64 %3, %bytes.addr.025
  store i64 %sub11, ptr %iov_len.le, align 8
  %add = add i64 %total.026, %bytes.addr.025
  br label %return

if.end12:                                         ; preds = %while.body
  %sub14 = sub nuw i64 %bytes.addr.025, %2
  %add16 = add i64 %2, %total.026
  %incdec.ptr = getelementptr i8, ptr %cur.027, i64 -16
  %sub17 = add i32 %1, -1
  store i32 %sub17, ptr %iov_cnt, align 4
  %cmp3.not = icmp eq i32 %sub17, 0
  br i1 %cmp3.not, label %return, label %while.body, !llvm.loop !26

return:                                           ; preds = %if.end12, %if.end9, %if.end
  %retval.0 = phi i64 [ 0, %if.end ], [ %add, %if.end9 ], [ %add16, %if.end12 ]
  ret i64 %retval.0
}